; Function Attrs: mustprogress nounwind uwtable
define dso_local void @_ZN4node15TimerWrapHandle5UnrefEv(ptr nocapture noundef nonnull readonly align 8 dereferenceable(16) %this) local_unnamed_addr #3 align 2 {
entry:
  %timer_ = getelementptr inbounds i8, ptr %this, i64 8
  %0 = load ptr, ptr %timer_, align 8
  %cmp.not = icmp eq ptr %0, null
  br i1 %cmp.not, label %if.end, label %if.then

if.then:                                          ; preds = %entry
  %timer_.i = getelementptr inbounds i8, ptr %0, i64 48
  %1 = load ptr, ptr %timer_.i, align 8
  %cmp.i = icmp eq ptr %1, null
  br i1 %cmp.i, label %if.end, label %if.end.i

if.end.i:                                         ; preds = %if.then
  tail call void @uv_unref(ptr noundef nonnull %timer_.i) #13
  br label %if.end

if.end:                                           ; preds = %if.end.i, %if.then, %entry
  ret void
}